; Function Attrs: mustprogress uwtable
define hidden noundef zeroext i1 @_ZN3slsleERKNS_5bvectEj(ptr noundef nonnull readonly align 8 captures(none) dereferenceable(20) %0, i32 noundef %1) local_unnamed_addr #3 {
  %3 = alloca i32, align 4
  %4 = alloca %class.mpn_manager, align 1
  store i32 %1, ptr %3, align 4, !tbaa !15
  %5 = getelementptr inbounds nuw i8, ptr %0, i64 12
  %6 = load i32, ptr %5, align 4, !tbaa !12
  %7 = icmp ugt i32 %6, 1
  %.pre = load ptr, ptr %0, align 8, !tbaa !14
  br i1 %7, label %.lr.ph, label %._crit_edge

.lr.ph:                                           ; preds = %2
  %wide.trip.count = zext i32 %6 to i64
  br label %9

8:                                                ; preds = %9
  %indvars.iv.next = add nuw nsw i64 %indvars.iv, 1
  %exitcond.not = icmp eq i64 %indvars.iv.next, %wide.trip.count
  br i1 %exitcond.not, label %._crit_edge, label %9, !llvm.loop !19

9:                                                ; preds = %.lr.ph, %8
  %indvars.iv = phi i64 [ 1, %.lr.ph ], [ %indvars.iv.next, %8 ]
  %10 = getelementptr inbounds nuw i32, ptr %.pre, i64 %indvars.iv
  %11 = load i32, ptr %10, align 4, !tbaa !15
  %.not = icmp eq i32 %11, 0
  br i1 %.not, label %8, label %.loopexit

._crit_edge:                                      ; preds = %8, %2
  call void @llvm.lifetime.start.p0(i64 1, ptr nonnull %4) #29
  %12 = call noundef i32 @_ZNK11mpn_manager7compareEPKjjS1_j(ptr noundef nonnull align 1 dereferenceable(1) %4, ptr noundef %.pre, i32 noundef 1, ptr noundef nonnull %3, i32 noundef 1)
  %13 = icmp slt i32 %12, 1
  call void @llvm.lifetime.end.p0(i64 1, ptr nonnull %4) #29
  br label %.loopexit

.loopexit:                                        ; preds = %9, %._crit_edge
  %.1 = phi i1 [ %13, %._crit_edge ], [ false, %9 ]
  ret i1 %.1
}